target datalayout = "e-m:e-p270:32:32-p271:32:32-p272:64:64-i64:64-i128:128-f80:128-n8:16:32:64-S128"
target triple = "x86_64-pc-linux-gnu"

@ff_crop_tab = external hidden constant [2304 x i8], align 16

; Function Attrs: nounwind uwtable
define internal void @put_rv40_qpel8_v_lowpass(ptr noundef %0, ptr noundef %1, i32 noundef %2, i32 noundef %3, i32 noundef %4, i32 noundef %5, i32 noundef %6, i32 noundef %7) #3 {
  %9 = alloca ptr, align 8
  %10 = alloca ptr, align 8
  %11 = alloca i32, align 4
  %12 = alloca i32, align 4
  %13 = alloca i32, align 4
  %14 = alloca i32, align 4
  %15 = alloca i32, align 4
  %16 = alloca i32, align 4
  %17 = alloca ptr, align 8
  %18 = alloca i32, align 4
  %19 = alloca i32, align 4
  %20 = alloca i32, align 4
  %21 = alloca i32, align 4
  %22 = alloca i32, align 4
  %23 = alloca i32, align 4
  %24 = alloca i32, align 4
  %25 = alloca i32, align 4
  %26 = alloca i32, align 4
  %27 = alloca i32, align 4
  %28 = alloca i32, align 4
  %29 = alloca i32, align 4
  %30 = alloca i32, align 4
  %31 = alloca i32, align 4
  store ptr %0, ptr %9, align 8, !tbaa !10
  store ptr %1, ptr %10, align 8, !tbaa !10
  store i32 %2, ptr %11, align 4, !tbaa !14
  store i32 %3, ptr %12, align 4, !tbaa !14
  store i32 %4, ptr %13, align 4, !tbaa !14
  store i32 %5, ptr %14, align 4, !tbaa !14
  store i32 %6, ptr %15, align 4, !tbaa !14
  store i32 %7, ptr %16, align 4, !tbaa !14
  call void @llvm.lifetime.start.p0(i64 8, ptr %17) #7
  store ptr getelementptr inbounds (i8, ptr @ff_crop_tab, i64 1024), ptr %17, align 8, !tbaa !10
  call void @llvm.lifetime.start.p0(i64 4, ptr %18) #7
  store i32 0, ptr %18, align 4, !tbaa !14
  br label %32

32:                                               ; preds = %380, %8
  %33 = load i32, ptr %18, align 4, !tbaa !14
  %34 = load i32, ptr %13, align 4, !tbaa !14
  %35 = icmp slt i32 %33, %34
  br i1 %35, label %36, label %383

36:                                               ; preds = %32
  call void @llvm.lifetime.start.p0(i64 4, ptr %19) #7
  %37 = load ptr, ptr %10, align 8, !tbaa !10
  %38 = load i32, ptr %12, align 4, !tbaa !14
  %39 = mul nsw i32 -2, %38
  %40 = sext i32 %39 to i64
  %41 = getelementptr inbounds i8, ptr %37, i64 %40
  %42 = load i8, ptr %41, align 1, !tbaa !16
  %43 = zext i8 %42 to i32
  store i32 %43, ptr %19, align 4, !tbaa !14
  call void @llvm.lifetime.start.p0(i64 4, ptr %20) #7
  %44 = load ptr, ptr %10, align 8, !tbaa !10
  %45 = load i32, ptr %12, align 4, !tbaa !14
  %46 = mul nsw i32 -1, %45
  %47 = sext i32 %46 to i64
  %48 = getelementptr inbounds i8, ptr %44, i64 %47
  %49 = load i8, ptr %48, align 1, !tbaa !16
  %50 = zext i8 %49 to i32
  store i32 %50, ptr %20, align 4, !tbaa !14
  call void @llvm.lifetime.start.p0(i64 4, ptr %21) #7
  %51 = load ptr, ptr %10, align 8, !tbaa !10
  %52 = load i32, ptr %12, align 4, !tbaa !14
  %53 = mul nsw i32 0, %52
  %54 = sext i32 %53 to i64
  %55 = getelementptr inbounds i8, ptr %51, i64 %54
  %56 = load i8, ptr %55, align 1, !tbaa !16
  %57 = zext i8 %56 to i32
  store i32 %57, ptr %21, align 4, !tbaa !14
  call void @llvm.lifetime.start.p0(i64 4, ptr %22) #7
  %58 = load ptr, ptr %10, align 8, !tbaa !10
  %59 = load i32, ptr %12, align 4, !tbaa !14
  %60 = mul nsw i32 1, %59
  %61 = sext i32 %60 to i64
  %62 = getelementptr inbounds i8, ptr %58, i64 %61
  %63 = load i8, ptr %62, align 1, !tbaa !16
  %64 = zext i8 %63 to i32
  store i32 %64, ptr %22, align 4, !tbaa !14
  call void @llvm.lifetime.start.p0(i64 4, ptr %23) #7
  %65 = load ptr, ptr %10, align 8, !tbaa !10
  %66 = load i32, ptr %12, align 4, !tbaa !14
  %67 = mul nsw i32 2, %66
  %68 = sext i32 %67 to i64
  %69 = getelementptr inbounds i8, ptr %65, i64 %68
  %70 = load i8, ptr %69, align 1, !tbaa !16
  %71 = zext i8 %70 to i32
  store i32 %71, ptr %23, align 4, !tbaa !14
  call void @llvm.lifetime.start.p0(i64 4, ptr %24) #7
  %72 = load ptr, ptr %10, align 8, !tbaa !10
  %73 = load i32, ptr %12, align 4, !tbaa !14
  %74 = mul nsw i32 3, %73
  %75 = sext i32 %74 to i64
  %76 = getelementptr inbounds i8, ptr %72, i64 %75
  %77 = load i8, ptr %76, align 1, !tbaa !16
  %78 = zext i8 %77 to i32
  store i32 %78, ptr %24, align 4, !tbaa !14
  call void @llvm.lifetime.start.p0(i64 4, ptr %25) #7
  %79 = load ptr, ptr %10, align 8, !tbaa !10
  %80 = load i32, ptr %12, align 4, !tbaa !14
  %81 = mul nsw i32 4, %80
  %82 = sext i32 %81 to i64
  %83 = getelementptr inbounds i8, ptr %79, i64 %82
  %84 = load i8, ptr %83, align 1, !tbaa !16
  %85 = zext i8 %84 to i32
  store i32 %85, ptr %25, align 4, !tbaa !14
  call void @llvm.lifetime.start.p0(i64 4, ptr %26) #7
  %86 = load ptr, ptr %10, align 8, !tbaa !10
  %87 = load i32, ptr %12, align 4, !tbaa !14
  %88 = mul nsw i32 5, %87
  %89 = sext i32 %88 to i64
  %90 = getelementptr inbounds i8, ptr %86, i64 %89
  %91 = load i8, ptr %90, align 1, !tbaa !16
  %92 = zext i8 %91 to i32
  store i32 %92, ptr %26, align 4, !tbaa !14
  call void @llvm.lifetime.start.p0(i64 4, ptr %27) #7
  %93 = load ptr, ptr %10, align 8, !tbaa !10
  %94 = load i32, ptr %12, align 4, !tbaa !14
  %95 = mul nsw i32 6, %94
  %96 = sext i32 %95 to i64
  %97 = getelementptr inbounds i8, ptr %93, i64 %96
  %98 = load i8, ptr %97, align 1, !tbaa !16
  %99 = zext i8 %98 to i32
  store i32 %99, ptr %27, align 4, !tbaa !14
  call void @llvm.lifetime.start.p0(i64 4, ptr %28) #7
  %100 = load ptr, ptr %10, align 8, !tbaa !10
  %101 = load i32, ptr %12, align 4, !tbaa !14
  %102 = mul nsw i32 7, %101
  %103 = sext i32 %102 to i64
  %104 = getelementptr inbounds i8, ptr %100, i64 %103
  %105 = load i8, ptr %104, align 1, !tbaa !16
  %106 = zext i8 %105 to i32
  store i32 %106, ptr %28, align 4, !tbaa !14
  call void @llvm.lifetime.start.p0(i64 4, ptr %29) #7
  %107 = load ptr, ptr %10, align 8, !tbaa !10
  %108 = load i32, ptr %12, align 4, !tbaa !14
  %109 = mul nsw i32 8, %108
  %110 = sext i32 %109 to i64
  %111 = getelementptr inbounds i8, ptr %107, i64 %110
  %112 = load i8, ptr %111, align 1, !tbaa !16
  %113 = zext i8 %112 to i32
  store i32 %113, ptr %29, align 4, !tbaa !14
  call void @llvm.lifetime.start.p0(i64 4, ptr %30) #7
  %114 = load ptr, ptr %10, align 8, !tbaa !10
  %115 = load i32, ptr %12, align 4, !tbaa !14
  %116 = mul nsw i32 9, %115
  %117 = sext i32 %116 to i64
  %118 = getelementptr inbounds i8, ptr %114, i64 %117
  %119 = load i8, ptr %118, align 1, !tbaa !16
  %120 = zext i8 %119 to i32
  store i32 %120, ptr %30, align 4, !tbaa !14
  call void @llvm.lifetime.start.p0(i64 4, ptr %31) #7
  %121 = load ptr, ptr %10, align 8, !tbaa !10
  %122 = load i32, ptr %12, align 4, !tbaa !14
  %123 = mul nsw i32 10, %122
  %124 = sext i32 %123 to i64
  %125 = getelementptr inbounds i8, ptr %121, i64 %124
  %126 = load i8, ptr %125, align 1, !tbaa !16
  %127 = zext i8 %126 to i32
  store i32 %127, ptr %31, align 4, !tbaa !14
  %128 = load ptr, ptr %17, align 8, !tbaa !10
  %129 = load i32, ptr %19, align 4, !tbaa !14
  %130 = load i32, ptr %24, align 4, !tbaa !14
  %131 = add nsw i32 %129, %130
  %132 = load i32, ptr %20, align 4, !tbaa !14
  %133 = load i32, ptr %23, align 4, !tbaa !14
  %134 = add nsw i32 %132, %133
  %135 = mul nsw i32 5, %134
  %136 = sub nsw i32 %131, %135
  %137 = load i32, ptr %21, align 4, !tbaa !14
  %138 = load i32, ptr %14, align 4, !tbaa !14
  %139 = mul nsw i32 %137, %138
  %140 = add nsw i32 %136, %139
  %141 = load i32, ptr %22, align 4, !tbaa !14
  %142 = load i32, ptr %15, align 4, !tbaa !14
  %143 = mul nsw i32 %141, %142
  %144 = add nsw i32 %140, %143
  %145 = load i32, ptr %16, align 4, !tbaa !14
  %146 = sub nsw i32 %145, 1
  %147 = shl i32 1, %146
  %148 = add nsw i32 %144, %147
  %149 = load i32, ptr %16, align 4, !tbaa !14
  %150 = ashr i32 %148, %149
  %151 = sext i32 %150 to i64
  %152 = getelementptr inbounds i8, ptr %128, i64 %151
  %153 = load i8, ptr %152, align 1, !tbaa !16
  %154 = load ptr, ptr %9, align 8, !tbaa !10
  %155 = load i32, ptr %11, align 4, !tbaa !14
  %156 = mul nsw i32 0, %155
  %157 = sext i32 %156 to i64
  %158 = getelementptr inbounds i8, ptr %154, i64 %157
  store i8 %153, ptr %158, align 1, !tbaa !16
  %159 = load ptr, ptr %17, align 8, !tbaa !10
  %160 = load i32, ptr %20, align 4, !tbaa !14
  %161 = load i32, ptr %25, align 4, !tbaa !14
  %162 = add nsw i32 %160, %161
  %163 = load i32, ptr %21, align 4, !tbaa !14
  %164 = load i32, ptr %24, align 4, !tbaa !14
  %165 = add nsw i32 %163, %164
  %166 = mul nsw i32 5, %165
  %167 = sub nsw i32 %162, %166
  %168 = load i32, ptr %22, align 4, !tbaa !14
  %169 = load i32, ptr %14, align 4, !tbaa !14
  %170 = mul nsw i32 %168, %169
  %171 = add nsw i32 %167, %170
  %172 = load i32, ptr %23, align 4, !tbaa !14
  %173 = load i32, ptr %15, align 4, !tbaa !14
  %174 = mul nsw i32 %172, %173
  %175 = add nsw i32 %171, %174
  %176 = load i32, ptr %16, align 4, !tbaa !14
  %177 = sub nsw i32 %176, 1
  %178 = shl i32 1, %177
  %179 = add nsw i32 %175, %178
  %180 = load i32, ptr %16, align 4, !tbaa !14
  %181 = ashr i32 %179, %180
  %182 = sext i32 %181 to i64
  %183 = getelementptr inbounds i8, ptr %159, i64 %182
  %184 = load i8, ptr %183, align 1, !tbaa !16
  %185 = load ptr, ptr %9, align 8, !tbaa !10
  %186 = load i32, ptr %11, align 4, !tbaa !14
  %187 = mul nsw i32 1, %186
  %188 = sext i32 %187 to i64
  %189 = getelementptr inbounds i8, ptr %185, i64 %188
  store i8 %184, ptr %189, align 1, !tbaa !16
  %190 = load ptr, ptr %17, align 8, !tbaa !10
  %191 = load i32, ptr %21, align 4, !tbaa !14
  %192 = load i32, ptr %26, align 4, !tbaa !14
  %193 = add nsw i32 %191, %192
  %194 = load i32, ptr %22, align 4, !tbaa !14
  %195 = load i32, ptr %25, align 4, !tbaa !14
  %196 = add nsw i32 %194, %195
  %197 = mul nsw i32 5, %196
  %198 = sub nsw i32 %193, %197
  %199 = load i32, ptr %23, align 4, !tbaa !14
  %200 = load i32, ptr %14, align 4, !tbaa !14
  %201 = mul nsw i32 %199, %200
  %202 = add nsw i32 %198, %201
  %203 = load i32, ptr %24, align 4, !tbaa !14
  %204 = load i32, ptr %15, align 4, !tbaa !14
  %205 = mul nsw i32 %203, %204
  %206 = add nsw i32 %202, %205
  %207 = load i32, ptr %16, align 4, !tbaa !14
  %208 = sub nsw i32 %207, 1
  %209 = shl i32 1, %208
  %210 = add nsw i32 %206, %209
  %211 = load i32, ptr %16, align 4, !tbaa !14
  %212 = ashr i32 %210, %211
  %213 = sext i32 %212 to i64
  %214 = getelementptr inbounds i8, ptr %190, i64 %213
  %215 = load i8, ptr %214, align 1, !tbaa !16
  %216 = load ptr, ptr %9, align 8, !tbaa !10
  %217 = load i32, ptr %11, align 4, !tbaa !14
  %218 = mul nsw i32 2, %217
  %219 = sext i32 %218 to i64
  %220 = getelementptr inbounds i8, ptr %216, i64 %219
  store i8 %215, ptr %220, align 1, !tbaa !16
  %221 = load ptr, ptr %17, align 8, !tbaa !10
  %222 = load i32, ptr %22, align 4, !tbaa !14
  %223 = load i32, ptr %27, align 4, !tbaa !14
  %224 = add nsw i32 %222, %223
  %225 = load i32, ptr %23, align 4, !tbaa !14
  %226 = load i32, ptr %26, align 4, !tbaa !14
  %227 = add nsw i32 %225, %226
  %228 = mul nsw i32 5, %227
  %229 = sub nsw i32 %224, %228
  %230 = load i32, ptr %24, align 4, !tbaa !14
  %231 = load i32, ptr %14, align 4, !tbaa !14
  %232 = mul nsw i32 %230, %231
  %233 = add nsw i32 %229, %232
  %234 = load i32, ptr %25, align 4, !tbaa !14
  %235 = load i32, ptr %15, align 4, !tbaa !14
  %236 = mul nsw i32 %234, %235
  %237 = add nsw i32 %233, %236
  %238 = load i32, ptr %16, align 4, !tbaa !14
  %239 = sub nsw i32 %238, 1
  %240 = shl i32 1, %239
  %241 = add nsw i32 %237, %240
  %242 = load i32, ptr %16, align 4, !tbaa !14
  %243 = ashr i32 %241, %242
  %244 = sext i32 %243 to i64
  %245 = getelementptr inbounds i8, ptr %221, i64 %244
  %246 = load i8, ptr %245, align 1, !tbaa !16
  %247 = load ptr, ptr %9, align 8, !tbaa !10
  %248 = load i32, ptr %11, align 4, !tbaa !14
  %249 = mul nsw i32 3, %248
  %250 = sext i32 %249 to i64
  %251 = getelementptr inbounds i8, ptr %247, i64 %250
  store i8 %246, ptr %251, align 1, !tbaa !16
  %252 = load ptr, ptr %17, align 8, !tbaa !10
  %253 = load i32, ptr %23, align 4, !tbaa !14
  %254 = load i32, ptr %28, align 4, !tbaa !14
  %255 = add nsw i32 %253, %254
  %256 = load i32, ptr %24, align 4, !tbaa !14
  %257 = load i32, ptr %27, align 4, !tbaa !14
  %258 = add nsw i32 %256, %257
  %259 = mul nsw i32 5, %258
  %260 = sub nsw i32 %255, %259
  %261 = load i32, ptr %25, align 4, !tbaa !14
  %262 = load i32, ptr %14, align 4, !tbaa !14
  %263 = mul nsw i32 %261, %262
  %264 = add nsw i32 %260, %263
  %265 = load i32, ptr %26, align 4, !tbaa !14
  %266 = load i32, ptr %15, align 4, !tbaa !14
  %267 = mul nsw i32 %265, %266
  %268 = add nsw i32 %264, %267
  %269 = load i32, ptr %16, align 4, !tbaa !14
  %270 = sub nsw i32 %269, 1
  %271 = shl i32 1, %270
  %272 = add nsw i32 %268, %271
  %273 = load i32, ptr %16, align 4, !tbaa !14
  %274 = ashr i32 %272, %273
  %275 = sext i32 %274 to i64
  %276 = getelementptr inbounds i8, ptr %252, i64 %275
  %277 = load i8, ptr %276, align 1, !tbaa !16
  %278 = load ptr, ptr %9, align 8, !tbaa !10
  %279 = load i32, ptr %11, align 4, !tbaa !14
  %280 = mul nsw i32 4, %279
  %281 = sext i32 %280 to i64
  %282 = getelementptr inbounds i8, ptr %278, i64 %281
  store i8 %277, ptr %282, align 1, !tbaa !16
  %283 = load ptr, ptr %17, align 8, !tbaa !10
  %284 = load i32, ptr %24, align 4, !tbaa !14
  %285 = load i32, ptr %29, align 4, !tbaa !14
  %286 = add nsw i32 %284, %285
  %287 = load i32, ptr %25, align 4, !tbaa !14
  %288 = load i32, ptr %28, align 4, !tbaa !14
  %289 = add nsw i32 %287, %288
  %290 = mul nsw i32 5, %289
  %291 = sub nsw i32 %286, %290
  %292 = load i32, ptr %26, align 4, !tbaa !14
  %293 = load i32, ptr %14, align 4, !tbaa !14
  %294 = mul nsw i32 %292, %293
  %295 = add nsw i32 %291, %294
  %296 = load i32, ptr %27, align 4, !tbaa !14
  %297 = load i32, ptr %15, align 4, !tbaa !14
  %298 = mul nsw i32 %296, %297
  %299 = add nsw i32 %295, %298
  %300 = load i32, ptr %16, align 4, !tbaa !14
  %301 = sub nsw i32 %300, 1
  %302 = shl i32 1, %301
  %303 = add nsw i32 %299, %302
  %304 = load i32, ptr %16, align 4, !tbaa !14
  %305 = ashr i32 %303, %304
  %306 = sext i32 %305 to i64
  %307 = getelementptr inbounds i8, ptr %283, i64 %306
  %308 = load i8, ptr %307, align 1, !tbaa !16
  %309 = load ptr, ptr %9, align 8, !tbaa !10
  %310 = load i32, ptr %11, align 4, !tbaa !14
  %311 = mul nsw i32 5, %310
  %312 = sext i32 %311 to i64
  %313 = getelementptr inbounds i8, ptr %309, i64 %312
  store i8 %308, ptr %313, align 1, !tbaa !16
  %314 = load ptr, ptr %17, align 8, !tbaa !10
  %315 = load i32, ptr %25, align 4, !tbaa !14
  %316 = load i32, ptr %30, align 4, !tbaa !14
  %317 = add nsw i32 %315, %316
  %318 = load i32, ptr %26, align 4, !tbaa !14
  %319 = load i32, ptr %29, align 4, !tbaa !14
  %320 = add nsw i32 %318, %319
  %321 = mul nsw i32 5, %320
  %322 = sub nsw i32 %317, %321
  %323 = load i32, ptr %27, align 4, !tbaa !14
  %324 = load i32, ptr %14, align 4, !tbaa !14
  %325 = mul nsw i32 %323, %324
  %326 = add nsw i32 %322, %325
  %327 = load i32, ptr %28, align 4, !tbaa !14
  %328 = load i32, ptr %15, align 4, !tbaa !14
  %329 = mul nsw i32 %327, %328
  %330 = add nsw i32 %326, %329
  %331 = load i32, ptr %16, align 4, !tbaa !14
  %332 = sub nsw i32 %331, 1
  %333 = shl i32 1, %332
  %334 = add nsw i32 %330, %333
  %335 = load i32, ptr %16, align 4, !tbaa !14
  %336 = ashr i32 %334, %335
  %337 = sext i32 %336 to i64
  %338 = getelementptr inbounds i8, ptr %314, i64 %337
  %339 = load i8, ptr %338, align 1, !tbaa !16
  %340 = load ptr, ptr %9, align 8, !tbaa !10
  %341 = load i32, ptr %11, align 4, !tbaa !14
  %342 = mul nsw i32 6, %341
  %343 = sext i32 %342 to i64
  %344 = getelementptr inbounds i8, ptr %340, i64 %343
  store i8 %339, ptr %344, align 1, !tbaa !16
  %345 = load ptr, ptr %17, align 8, !tbaa !10
  %346 = load i32, ptr %26, align 4, !tbaa !14
  %347 = load i32, ptr %31, align 4, !tbaa !14
  %348 = add nsw i32 %346, %347
  %349 = load i32, ptr %27, align 4, !tbaa !14
  %350 = load i32, ptr %30, align 4, !tbaa !14
  %351 = add nsw i32 %349, %350
  %352 = mul nsw i32 5, %351
  %353 = sub nsw i32 %348, %352
  %354 = load i32, ptr %28, align 4, !tbaa !14
  %355 = load i32, ptr %14, align 4, !tbaa !14
  %356 = mul nsw i32 %354, %355
  %357 = add nsw i32 %353, %356
  %358 = load i32, ptr %29, align 4, !tbaa !14
  %359 = load i32, ptr %15, align 4, !tbaa !14
  %360 = mul nsw i32 %358, %359
  %361 = add nsw i32 %357, %360
  %362 = load i32, ptr %16, align 4, !tbaa !14
  %363 = sub nsw i32 %362, 1
  %364 = shl i32 1, %363
  %365 = add nsw i32 %361, %364
  %366 = load i32, ptr %16, align 4, !tbaa !14
  %367 = ashr i32 %365, %366
  %368 = sext i32 %367 to i64
  %369 = getelementptr inbounds i8, ptr %345, i64 %368
  %370 = load i8, ptr %369, align 1, !tbaa !16
  %371 = load ptr, ptr %9, align 8, !tbaa !10
  %372 = load i32, ptr %11, align 4, !tbaa !14
  %373 = mul nsw i32 7, %372
  %374 = sext i32 %373 to i64
  %375 = getelementptr inbounds i8, ptr %371, i64 %374
  store i8 %370, ptr %375, align 1, !tbaa !16
  %376 = load ptr, ptr %9, align 8, !tbaa !10
  %377 = getelementptr inbounds nuw i8, ptr %376, i32 1
  store ptr %377, ptr %9, align 8, !tbaa !10
  %378 = load ptr, ptr %10, align 8, !tbaa !10
  %379 = getelementptr inbounds nuw i8, ptr %378, i32 1
  store ptr %379, ptr %10, align 8, !tbaa !10
  call void @llvm.lifetime.end.p0(i64 4, ptr %31) #7
  call void @llvm.lifetime.end.p0(i64 4, ptr %30) #7
  call void @llvm.lifetime.end.p0(i64 4, ptr %29) #7
  call void @llvm.lifetime.end.p0(i64 4, ptr %28) #7
  call void @llvm.lifetime.end.p0(i64 4, ptr %27) #7
  call void @llvm.lifetime.end.p0(i64 4, ptr %26) #7
  call void @llvm.lifetime.end.p0(i64 4, ptr %25) #7
  call void @llvm.lifetime.end.p0(i64 4, ptr %24) #7
  call void @llvm.lifetime.end.p0(i64 4, ptr %23) #7
  call void @llvm.lifetime.end.p0(i64 4, ptr %22) #7
  call void @llvm.lifetime.end.p0(i64 4, ptr %21) #7
  call void @llvm.lifetime.end.p0(i64 4, ptr %20) #7
  call void @llvm.lifetime.end.p0(i64 4, ptr %19) #7
  br label %380

380:                                              ; preds = %36
  %381 = load i32, ptr %18, align 4, !tbaa !14
  %382 = add nsw i32 %381, 1
  store i32 %382, ptr %18, align 4, !tbaa !14
  br label %32, !llvm.loop !37

383:                                              ; preds = %32
  call void @llvm.lifetime.end.p0(i64 4, ptr %18) #7
  call void @llvm.lifetime.end.p0(i64 8, ptr %17) #7
  ret void
}