; Function Attrs: nofree norecurse nosync nounwind memory(argmem: readwrite) uwtable
define internal fastcc void @put_rv40_qpel8_v_lowpass(ptr noundef writeonly captures(none) %0, ptr noundef readonly captures(none) %1, i32 noundef %2, i32 noundef %3, i32 noundef range(i32 20, 53) %4, i32 noundef range(i32 20, 53) %5, i32 noundef range(i32 5, 7) %6) unnamed_addr #3 {
  %8 = mul nsw i32 %3, -2
  %9 = sext i32 %8 to i64
  %10 = sub nsw i32 0, %3
  %11 = sext i32 %10 to i64
  %12 = sext i32 %3 to i64
  %13 = shl nsw i32 %3, 1
  %14 = sext i32 %13 to i64
  %15 = mul nsw i32 %3, 3
  %16 = sext i32 %15 to i64
  %17 = shl nsw i32 %3, 2
  %18 = sext i32 %17 to i64
  %19 = mul nsw i32 %3, 5
  %20 = sext i32 %19 to i64
  %21 = mul nsw i32 %3, 6
  %22 = sext i32 %21 to i64
  %23 = mul nsw i32 %3, 7
  %24 = sext i32 %23 to i64
  %25 = shl nsw i32 %3, 3
  %26 = sext i32 %25 to i64
  %27 = mul nsw i32 %3, 9
  %28 = sext i32 %27 to i64
  %29 = mul nsw i32 %3, 10
  %30 = sext i32 %29 to i64
  %31 = add nsw i32 %6, -1
  %32 = shl nuw nsw i32 1, %31
  %33 = sext i32 %2 to i64
  %34 = shl nsw i32 %2, 1
  %35 = sext i32 %34 to i64
  %36 = mul nsw i32 %2, 3
  %37 = sext i32 %36 to i64
  %38 = shl nsw i32 %2, 2
  %39 = sext i32 %38 to i64
  %40 = mul nsw i32 %2, 5
  %41 = sext i32 %40 to i64
  %42 = mul nsw i32 %2, 6
  %43 = sext i32 %42 to i64
  %44 = mul nsw i32 %2, 7
  %45 = sext i32 %44 to i64
  br label %46

46:                                               ; preds = %7, %46
  %.0145 = phi ptr [ %0, %7 ], [ %185, %46 ]
  %.0134144 = phi ptr [ %1, %7 ], [ %186, %46 ]
  %.0135143 = phi i32 [ 0, %7 ], [ %187, %46 ]
  %47 = getelementptr inbounds i8, ptr %.0134144, i64 %9
  %48 = load i8, ptr %47, align 1, !tbaa !8
  %49 = zext i8 %48 to i32
  %50 = getelementptr inbounds i8, ptr %.0134144, i64 %11
  %51 = load i8, ptr %50, align 1, !tbaa !8
  %52 = zext i8 %51 to i32
  %53 = load i8, ptr %.0134144, align 1, !tbaa !8
  %54 = zext i8 %53 to i32
  %55 = getelementptr inbounds i8, ptr %.0134144, i64 %12
  %56 = load i8, ptr %55, align 1, !tbaa !8
  %57 = zext i8 %56 to i32
  %58 = getelementptr inbounds i8, ptr %.0134144, i64 %14
  %59 = load i8, ptr %58, align 1, !tbaa !8
  %60 = zext i8 %59 to i32
  %61 = getelementptr inbounds i8, ptr %.0134144, i64 %16
  %62 = load i8, ptr %61, align 1, !tbaa !8
  %63 = zext i8 %62 to i32
  %64 = getelementptr inbounds i8, ptr %.0134144, i64 %18
  %65 = load i8, ptr %64, align 1, !tbaa !8
  %66 = zext i8 %65 to i32
  %67 = getelementptr inbounds i8, ptr %.0134144, i64 %20
  %68 = load i8, ptr %67, align 1, !tbaa !8
  %69 = zext i8 %68 to i32
  %70 = getelementptr inbounds i8, ptr %.0134144, i64 %22
  %71 = load i8, ptr %70, align 1, !tbaa !8
  %72 = zext i8 %71 to i32
  %73 = getelementptr inbounds i8, ptr %.0134144, i64 %24
  %74 = load i8, ptr %73, align 1, !tbaa !8
  %75 = zext i8 %74 to i32
  %76 = getelementptr inbounds i8, ptr %.0134144, i64 %26
  %77 = load i8, ptr %76, align 1, !tbaa !8
  %78 = zext i8 %77 to i32
  %79 = getelementptr inbounds i8, ptr %.0134144, i64 %28
  %80 = load i8, ptr %79, align 1, !tbaa !8
  %81 = zext i8 %80 to i32
  %82 = getelementptr inbounds i8, ptr %.0134144, i64 %30
  %83 = load i8, ptr %82, align 1, !tbaa !8
  %84 = zext i8 %83 to i32
  %85 = add nuw nsw i32 %60, %52
  %.neg = mul nsw i32 %85, -5
  %86 = mul nuw nsw i32 %4, %54
  %87 = mul nuw nsw i32 %5, %57
  %88 = add nuw nsw i32 %32, %63
  %89 = add nuw nsw i32 %88, %49
  %90 = add nuw nsw i32 %89, %86
  %91 = add nuw nsw i32 %90, %87
  %92 = add nsw i32 %91, %.neg
  %93 = ashr i32 %92, %6
  %94 = sext i32 %93 to i64
  %95 = getelementptr inbounds i8, ptr getelementptr inbounds nuw (i8, ptr @ff_crop_tab, i64 1024), i64 %94
  %96 = load i8, ptr %95, align 1, !tbaa !8
  store i8 %96, ptr %.0145, align 1, !tbaa !8
  %97 = add nuw nsw i32 %63, %54
  %.neg136 = mul nsw i32 %97, -5
  %98 = mul nuw nsw i32 %4, %57
  %99 = mul nuw nsw i32 %5, %60
  %100 = add nuw nsw i32 %32, %66
  %101 = add nuw nsw i32 %100, %52
  %102 = add nuw nsw i32 %101, %98
  %103 = add nuw nsw i32 %102, %99
  %104 = add nsw i32 %103, %.neg136
  %105 = ashr i32 %104, %6
  %106 = sext i32 %105 to i64
  %107 = getelementptr inbounds i8, ptr getelementptr inbounds nuw (i8, ptr @ff_crop_tab, i64 1024), i64 %106
  %108 = load i8, ptr %107, align 1, !tbaa !8
  %109 = getelementptr inbounds i8, ptr %.0145, i64 %33
  store i8 %108, ptr %109, align 1, !tbaa !8
  %110 = add nuw nsw i32 %66, %57
  %.neg137 = mul nsw i32 %110, -5
  %111 = mul nuw nsw i32 %4, %60
  %112 = mul nuw nsw i32 %5, %63
  %113 = add nuw nsw i32 %32, %69
  %114 = add nuw nsw i32 %113, %54
  %115 = add nuw nsw i32 %114, %111
  %116 = add nuw nsw i32 %115, %112
  %117 = add nsw i32 %116, %.neg137
  %118 = ashr i32 %117, %6
  %119 = sext i32 %118 to i64
  %120 = getelementptr inbounds i8, ptr getelementptr inbounds nuw (i8, ptr @ff_crop_tab, i64 1024), i64 %119
  %121 = load i8, ptr %120, align 1, !tbaa !8
  %122 = getelementptr inbounds i8, ptr %.0145, i64 %35
  store i8 %121, ptr %122, align 1, !tbaa !8
  %123 = add nuw nsw i32 %69, %60
  %.neg138 = mul nsw i32 %123, -5
  %124 = mul nuw nsw i32 %4, %63
  %125 = mul nuw nsw i32 %5, %66
  %126 = add nuw nsw i32 %32, %57
  %127 = add nuw nsw i32 %126, %124
  %128 = add nuw nsw i32 %127, %125
  %129 = add nuw nsw i32 %128, %72
  %130 = add nsw i32 %129, %.neg138
  %131 = ashr i32 %130, %6
  %132 = sext i32 %131 to i64
  %133 = getelementptr inbounds i8, ptr getelementptr inbounds nuw (i8, ptr @ff_crop_tab, i64 1024), i64 %132
  %134 = load i8, ptr %133, align 1, !tbaa !8
  %135 = getelementptr inbounds i8, ptr %.0145, i64 %37
  store i8 %134, ptr %135, align 1, !tbaa !8
  %136 = add nuw nsw i32 %72, %63
  %.neg139 = mul nsw i32 %136, -5
  %137 = mul nuw nsw i32 %4, %66
  %138 = mul nuw nsw i32 %5, %69
  %139 = add nuw nsw i32 %32, %60
  %140 = add nuw nsw i32 %139, %137
  %141 = add nuw nsw i32 %140, %138
  %142 = add nuw nsw i32 %141, %75
  %143 = add nsw i32 %142, %.neg139
  %144 = ashr i32 %143, %6
  %145 = sext i32 %144 to i64
  %146 = getelementptr inbounds i8, ptr getelementptr inbounds nuw (i8, ptr @ff_crop_tab, i64 1024), i64 %145
  %147 = load i8, ptr %146, align 1, !tbaa !8
  %148 = getelementptr inbounds i8, ptr %.0145, i64 %39
  store i8 %147, ptr %148, align 1, !tbaa !8
  %149 = add nuw nsw i32 %75, %66
  %.neg140 = mul nsw i32 %149, -5
  %150 = mul nuw nsw i32 %4, %69
  %151 = mul nuw nsw i32 %5, %72
  %152 = add nuw nsw i32 %88, %150
  %153 = add nuw nsw i32 %152, %151
  %154 = add nuw nsw i32 %153, %78
  %155 = add nsw i32 %154, %.neg140
  %156 = ashr i32 %155, %6
  %157 = sext i32 %156 to i64
  %158 = getelementptr inbounds i8, ptr getelementptr inbounds nuw (i8, ptr @ff_crop_tab, i64 1024), i64 %157
  %159 = load i8, ptr %158, align 1, !tbaa !8
  %160 = getelementptr inbounds i8, ptr %.0145, i64 %41
  store i8 %159, ptr %160, align 1, !tbaa !8
  %161 = add nuw nsw i32 %78, %69
  %.neg141 = mul nsw i32 %161, -5
  %162 = mul nuw nsw i32 %4, %72
  %163 = mul nuw nsw i32 %5, %75
  %164 = add nuw nsw i32 %100, %162
  %165 = add nuw nsw i32 %164, %163
  %166 = add nuw nsw i32 %165, %81
  %167 = add nsw i32 %166, %.neg141
  %168 = ashr i32 %167, %6
  %169 = sext i32 %168 to i64
  %170 = getelementptr inbounds i8, ptr getelementptr inbounds nuw (i8, ptr @ff_crop_tab, i64 1024), i64 %169
  %171 = load i8, ptr %170, align 1, !tbaa !8
  %172 = getelementptr inbounds i8, ptr %.0145, i64 %43
  store i8 %171, ptr %172, align 1, !tbaa !8
  %173 = add nuw nsw i32 %81, %72
  %.neg142 = mul nsw i32 %173, -5
  %174 = mul nuw nsw i32 %4, %75
  %175 = mul nuw nsw i32 %5, %78
  %176 = add nuw nsw i32 %113, %174
  %177 = add nuw nsw i32 %176, %175
  %178 = add nuw nsw i32 %177, %84
  %179 = add nsw i32 %178, %.neg142
  %180 = ashr i32 %179, %6
  %181 = sext i32 %180 to i64
  %182 = getelementptr inbounds i8, ptr getelementptr inbounds nuw (i8, ptr @ff_crop_tab, i64 1024), i64 %181
  %183 = load i8, ptr %182, align 1, !tbaa !8
  %184 = getelementptr inbounds i8, ptr %.0145, i64 %45
  store i8 %183, ptr %184, align 1, !tbaa !8
  %185 = getelementptr inbounds nuw i8, ptr %.0145, i64 1
  %186 = getelementptr inbounds nuw i8, ptr %.0134144, i64 1
  %187 = add nuw nsw i32 %.0135143, 1
  %exitcond.not = icmp eq i32 %187, 8
  br i1 %exitcond.not, label %188, label %46, !llvm.loop !37

188:                                              ; preds = %46
  ret void
}